EXPORTS
	_ZN11MSRPStrings4PoolEv @ 1 NONAME
	_ZN11MSRPStrings5CloseEv @ 2 NONAME
	_ZN11MSRPStrings5OpenLER11RStringPool @ 3 NONAME
	_ZN11MSRPStrings5OpenLEv @ 4 NONAME
	_ZN11MSRPStrings5TableEv @ 5 NONAME
	_ZN11MSRPStrings7StringFEi @ 6 NONAME
	_ZN12CMSRPMessage10SetContentEP6HBufC8 @ 7 NONAME
	_ZN12CMSRPMessage11GetFileNameEv @ 8 NONAME
	_ZN12CMSRPMessage11GetFileSizeEv @ 9 NONAME
	_ZN12CMSRPMessage11SetFileNameERK4TBufILi256EE @ 10 NONAME
	_ZN12CMSRPMessage11SetFileSizeEi @ 11 NONAME
	_ZN12CMSRPMessage12ExternalizeLER12RWriteStream @ 12 NONAME
	_ZN12CMSRPMessage12InternalizeLER11RReadStream @ 13 NONAME
	_ZN12CMSRPMessage17GetNotifyProgressEv @ 14 NONAME
	_ZN12CMSRPMessage17SetNotifyProgressEi @ 15 NONAME
	_ZN12CMSRPMessage6IsFileEv @ 16 NONAME
	_ZN12CMSRPMessage7ContentEv @ 17 NONAME
	_ZN12CMSRPMessage9IsMessageERK6TDesC8 @ 18 NONAME
	_ZN12CMSRPMessageC1Ev @ 19 NONAME
	_ZN12CMSRPMessageC2Ev @ 20 NONAME
	_ZN12CMSRPMessageD0Ev @ 21 NONAME
	_ZN12CMSRPMessageD1Ev @ 22 NONAME
	_ZN12CMSRPMessageD2Ev @ 23 NONAME
	_ZN13CMSRPResponse10IsResponseERK6TDesC8 @ 24 NONAME
	_ZN13CMSRPResponse12ExternalizeLER12RWriteStream @ 25 NONAME
	_ZN13CMSRPResponse12InternalizeLER11RReadStream @ 26 NONAME
	_ZN13CMSRPResponse14SetStatusCodeLEj @ 27 NONAME
	_ZN13CMSRPResponse15SetReasonPhraseE8RStringF @ 28 NONAME
	_ZN13CMSRPResponseC1Ej8RStringF @ 29 NONAME
	_ZN13CMSRPResponseC1Ev @ 30 NONAME
	_ZN13CMSRPResponseC2Ej8RStringF @ 31 NONAME
	_ZN13CMSRPResponseC2Ev @ 32 NONAME
	_ZN13CMSRPResponseD0Ev @ 33 NONAME
	_ZN13CMSRPResponseD1Ev @ 34 NONAME
	_ZN13CMSRPResponseD2Ev @ 35 NONAME
	_ZN15CMSRPHeaderBaseD0Ev @ 36 NONAME
	_ZN15CMSRPHeaderBaseD1Ev @ 37 NONAME
	_ZN15CMSRPHeaderBaseD2Ev @ 38 NONAME
	_ZN16CMSRPMessageBase15SetToPathHeaderEP17CMSRPToPathHeader @ 39 NONAME
	_ZN16CMSRPMessageBase17SetFromPathHeaderEP19CMSRPFromPathHeader @ 40 NONAME
	_ZN16CMSRPMessageBase18SetByteRangeHeaderEP20CMSRPByteRangeHeader @ 41 NONAME
	_ZN16CMSRPMessageBase18SetMessageIdHeaderEP20CMSRPMessageIdHeader @ 42 NONAME
	_ZN16CMSRPMessageBase20SetContentTypeHeaderEP22CMSRPContentTypeHeader @ 43 NONAME
	_ZN16CMSRPMessageBase22SetFailureReportHeaderEP24CMSRPFailureReportHeader @ 44 NONAME
	_ZN16CMSRPMessageBase22SetSuccessReportHeaderEP24CMSRPSuccessReportHeader @ 45 NONAME
	_ZN16CMSRPMessageBaseD0Ev @ 46 NONAME
	_ZN16CMSRPMessageBaseD1Ev @ 47 NONAME
	_ZN16CMSRPMessageBaseD2Ev @ 48 NONAME
	_ZN17CMSRPToPathHeader17InternalizeValueLER11RReadStream @ 49 NONAME
	_ZN17CMSRPToPathHeader4NewLEP5CUri8 @ 50 NONAME
	_ZN17CMSRPToPathHeader5NewLCEP5CUri8 @ 51 NONAME
	_ZN17CMSRPToPathHeader7DecodeLERK6TDesC8 @ 52 NONAME
	_ZN17CMSRPToPathHeaderD0Ev @ 53 NONAME
	_ZN17CMSRPToPathHeaderD1Ev @ 54 NONAME
	_ZN17CMSRPToPathHeaderD2Ev @ 55 NONAME
	_ZN19CMSRPFromPathHeader17InternalizeValueLER11RReadStream @ 56 NONAME
	_ZN19CMSRPFromPathHeader4NewLEP5CUri8 @ 57 NONAME
	_ZN19CMSRPFromPathHeader5NewLCEP5CUri8 @ 58 NONAME
	_ZN19CMSRPFromPathHeader7DecodeLERK6TDesC8 @ 59 NONAME
	_ZN19CMSRPFromPathHeaderD0Ev @ 60 NONAME
	_ZN19CMSRPFromPathHeaderD1Ev @ 61 NONAME
	_ZN19CMSRPFromPathHeaderD2Ev @ 62 NONAME
	_ZN20CMSRPByteRangeHeader14SetEndPositionEi @ 63 NONAME
	_ZN20CMSRPByteRangeHeader14SetTotalLengthEi @ 64 NONAME
	_ZN20CMSRPByteRangeHeader16SetStartPositionEi @ 65 NONAME
	_ZN20CMSRPByteRangeHeader17InternalizeValueLER11RReadStream @ 66 NONAME
	_ZN20CMSRPByteRangeHeader4NewLEiii @ 67 NONAME
	_ZN20CMSRPByteRangeHeader5NewLCEiii @ 68 NONAME
	_ZN20CMSRPByteRangeHeaderD0Ev @ 69 NONAME
	_ZN20CMSRPByteRangeHeaderD1Ev @ 70 NONAME
	_ZN20CMSRPByteRangeHeaderD2Ev @ 71 NONAME
	_ZN20CMSRPMessageIdHeader17InternalizeValueLER11RReadStream @ 72 NONAME
	_ZN20CMSRPMessageIdHeader4NewLERK6TDesC8 @ 73 NONAME
	_ZN20CMSRPMessageIdHeader5NewLCERK6TDesC8 @ 74 NONAME
	_ZN20CMSRPMessageIdHeaderD0Ev @ 75 NONAME
	_ZN20CMSRPMessageIdHeaderD1Ev @ 76 NONAME
	_ZN20CMSRPMessageIdHeaderD2Ev @ 77 NONAME
	_ZN21CMSRPFromToHeaderBaseD0Ev @ 78 NONAME
	_ZN21CMSRPFromToHeaderBaseD1Ev @ 79 NONAME
	_ZN21CMSRPFromToHeaderBaseD2Ev @ 80 NONAME
	_ZN22CMSRPContentTypeHeader17InternalizeValueLER11RReadStream @ 81 NONAME
	_ZN22CMSRPContentTypeHeader4NewLERK6TDesC8 @ 82 NONAME
	_ZN22CMSRPContentTypeHeader5NewLCERK6TDesC8 @ 83 NONAME
	_ZN22CMSRPContentTypeHeaderD0Ev @ 84 NONAME
	_ZN22CMSRPContentTypeHeaderD1Ev @ 85 NONAME
	_ZN22CMSRPContentTypeHeaderD2Ev @ 86 NONAME
	_ZN24CMSRPFailureReportHeader17InternalizeValueLER11RReadStream @ 87 NONAME
	_ZN24CMSRPFailureReportHeader4NewLERK8RStringF @ 88 NONAME
	_ZN24CMSRPFailureReportHeader5NewLCERK8RStringF @ 89 NONAME
	_ZN24CMSRPFailureReportHeaderD0Ev @ 90 NONAME
	_ZN24CMSRPFailureReportHeaderD1Ev @ 91 NONAME
	_ZN24CMSRPFailureReportHeaderD2Ev @ 92 NONAME
	_ZN24CMSRPSuccessReportHeader17InternalizeValueLER11RReadStream @ 93 NONAME
	_ZN24CMSRPSuccessReportHeader4NewLERK8RStringF @ 94 NONAME
	_ZN24CMSRPSuccessReportHeader5NewLCERK8RStringF @ 95 NONAME
	_ZN24CMSRPSuccessReportHeaderD0Ev @ 96 NONAME
	_ZN24CMSRPSuccessReportHeaderD1Ev @ 97 NONAME
	_ZN24CMSRPSuccessReportHeaderD2Ev @ 98 NONAME
	_ZNK12CMSRPMessage9IsContentEv @ 99 NONAME
	_ZNK13CMSRPResponse10StatusCodeEv @ 100 NONAME
	_ZNK13CMSRPResponse12ReasonPhraseEv @ 101 NONAME
	_ZNK15CMSRPHeaderBase13ToTextValueLCEv @ 102 NONAME
	_ZNK15CMSRPHeaderBase7ToTextLEv @ 103 NONAME
	_ZNK15CMSRPHeaderBase8ToTextLCEv @ 104 NONAME
	_ZNK16CMSRPMessageBase12ToPathHeaderEv @ 105 NONAME
	_ZNK16CMSRPMessageBase14FromPathHeaderEv @ 106 NONAME
	_ZNK16CMSRPMessageBase15ByteRangeHeaderEv @ 107 NONAME
	_ZNK16CMSRPMessageBase15MessageIdHeaderEv @ 108 NONAME
	_ZNK16CMSRPMessageBase17ContentTypeHeaderEv @ 109 NONAME
	_ZNK16CMSRPMessageBase19FailureReportHeaderEv @ 110 NONAME
	_ZNK16CMSRPMessageBase19SuccessReportHeaderEv @ 111 NONAME
	_ZNK20CMSRPByteRangeHeader11EndPositionEv @ 112 NONAME
	_ZNK20CMSRPByteRangeHeader11TotalLengthEv @ 113 NONAME
	_ZNK20CMSRPByteRangeHeader13StartPositionEv @ 114 NONAME
	_ZNK20CMSRPByteRangeHeader17ExternalizeValueLER12RWriteStream @ 115 NONAME
	_ZNK20CMSRPMessageIdHeader17ExternalizeValueLER12RWriteStream @ 116 NONAME
	_ZNK21CMSRPFromToHeaderBase17ExternalizeValueLER12RWriteStream @ 117 NONAME
	_ZNK21CMSRPFromToHeaderBaseeqERKS_ @ 118 NONAME
	_ZTI12CMSRPMessage @ 119 NONAME
	_ZTI12CMSRPStrings @ 120 NONAME
	_ZTI12CMSRPTlsPtrs @ 121 NONAME
	_ZTI13CMSRPResponse @ 122 NONAME
	_ZTI15CMSRPHeaderBase @ 123 NONAME
	_ZTI16CMSRPMessageBase @ 124 NONAME
	_ZTI17CMSRPToPathHeader @ 125 NONAME
	_ZTI19CMSRPFromPathHeader @ 126 NONAME
	_ZTI20CMSRPByteRangeHeader @ 127 NONAME
	_ZTI20CMSRPMessageIdHeader @ 128 NONAME
	_ZTI21CMSRPFromToHeaderBase @ 129 NONAME
	_ZTI22CMSRPContentTypeHeader @ 130 NONAME
	_ZTI24CMSRPFailureReportHeader @ 131 NONAME
	_ZTI24CMSRPSuccessReportHeader @ 132 NONAME
	_ZTV12CMSRPMessage @ 133 NONAME
	_ZTV12CMSRPStrings @ 134 NONAME
	_ZTV12CMSRPTlsPtrs @ 135 NONAME
	_ZTV13CMSRPResponse @ 136 NONAME
	_ZTV15CMSRPHeaderBase @ 137 NONAME
	_ZTV16CMSRPMessageBase @ 138 NONAME
	_ZTV17CMSRPToPathHeader @ 139 NONAME
	_ZTV19CMSRPFromPathHeader @ 140 NONAME
	_ZTV20CMSRPByteRangeHeader @ 141 NONAME
	_ZTV20CMSRPMessageIdHeader @ 142 NONAME
	_ZTV21CMSRPFromToHeaderBase @ 143 NONAME
	_ZTV22CMSRPContentTypeHeader @ 144 NONAME
	_ZTV24CMSRPFailureReportHeader @ 145 NONAME
	_ZTV24CMSRPSuccessReportHeader @ 146 NONAME

