EXPORTS
	?ReceiveFile@CMSRPSession@@QAEHABV?$TBuf@$0BAA@@@HABVTDesC8@@@Z @ 1 NONAME ; int CMSRPSession::ReceiveFile(class TBuf<256> const &, int, class TDesC8 const &)
	?NewL@CMSRPSessionParams@@SAPAV1@XZ @ 2 NONAME ; class CMSRPSessionParams * CMSRPSessionParams::NewL(void)
	?SendFile@CMSRPSession@@QAEHABV?$TBuf@$0BAA@@@ABVTDesC8@@@Z @ 3 NONAME ; int CMSRPSession::SendFile(class TBuf<256> const &, class TDesC8 const &)
	?CancelSending@CMSRPSession@@QAEHAAVTDesC8@@@Z @ 4 NONAME ; int CMSRPSession::CancelSending(class TDesC8 &)
	??1CMSRPSessionParams@@UAE@XZ @ 5 NONAME ; CMSRPSessionParams::~CMSRPSessionParams(void)
	?SuccessReportHeader@CMSRPSessionParams@@QAE?AW4TReportStatus@@XZ @ 6 NONAME ; enum TReportStatus CMSRPSessionParams::SuccessReportHeader(void)
	?NewLC@CMSRP@@SAPAV1@ABVTUid@@@Z @ 7 NONAME ; class CMSRP * CMSRP::NewLC(class TUid const &)
	?Listen@CMSRPSession@@QAEHABVTDesC8@@@Z @ 8 NONAME ; int CMSRPSession::Listen(class TDesC8 const &)
	?SetReportHeadersL@CMSRPSessionParams@@QAEXW4TReportStatus@@0@Z @ 9 NONAME ; void CMSRPSessionParams::SetReportHeadersL(enum TReportStatus, enum TReportStatus)
	?SendBuffer@CMSRPSession@@QAEPAVHBufC8@@ABVTDesC8@@0@Z @ 10 NONAME ; class HBufC8 * CMSRPSession::SendBuffer(class TDesC8 const &, class TDesC8 const &)
	?Connect@CMSRPSession@@QAEHABVTDesC8@@@Z @ 11 NONAME ; int CMSRPSession::Connect(class TDesC8 const &)
	?FailureReportHeader@CMSRPSessionParams@@QAE?AW4TReportStatus@@XZ @ 12 NONAME ; enum TReportStatus CMSRPSessionParams::FailureReportHeader(void)
	??1CMSRP@@UAE@XZ @ 13 NONAME ; CMSRP::~CMSRP(void)
	?CancelReceiveFile@CMSRPSession@@QAEHXZ @ 14 NONAME ; int CMSRPSession::CancelReceiveFile(void)
	?SetSessionParams@CMSRPSession@@QAEXAAVCMSRPSessionParams@@@Z @ 15 NONAME ; void CMSRPSession::SetSessionParams(class CMSRPSessionParams &)
	?CloseMSRPSession@CMSRP@@QAEXPAVCMSRPSession@@@Z @ 16 NONAME ; void CMSRP::CloseMSRPSession(class CMSRPSession *)
	?CancelFileSending@CMSRPSession@@QAEHXZ @ 17 NONAME ; int CMSRPSession::CancelFileSending(void)
	?ConstructL@CMSRP@@AAEXABVTUid@@@Z @ 18 NONAME ; void CMSRP::ConstructL(class TUid const &)
	?LocalMSRPPath@CMSRPSession@@QAEAAVTDesC8@@XZ @ 19 NONAME ; class TDesC8 & CMSRPSession::LocalMSRPPath(void)
	?CreateMSRPSessionL@CMSRP@@QAEPAVCMSRPSession@@AAVMMSRPSessionObserver@@I@Z @ 20 NONAME ; class CMSRPSession * CMSRP::CreateMSRPSessionL(class MMSRPSessionObserver &, unsigned int)
	?NotifyProgress@CMSRPSession@@QAEXH@Z @ 21 NONAME ; void CMSRPSession::NotifyProgress(int)
	?NewL@CMSRP@@SAPAV1@ABVTUid@@@Z @ 22 NONAME ; class CMSRP * CMSRP::NewL(class TUid const &)

