EXPORTS
	_ZN12CMSRPSession10SendBufferERK6TDesC8S2_ @ 1 NONAME
	_ZN12CMSRPSession11ReceiveFileERK4TBufILi256EEiRK6TDesC8 @ 2 NONAME
	_ZN12CMSRPSession13CancelSendingER6TDesC8 @ 3 NONAME
	_ZN12CMSRPSession13LocalMSRPPathEv @ 4 NONAME
	_ZN12CMSRPSession14NotifyProgressEi @ 5 NONAME
	_ZN12CMSRPSession16SetSessionParamsER18CMSRPSessionParams @ 6 NONAME
	_ZN12CMSRPSession17CancelFileSendingEv @ 7 NONAME
	_ZN12CMSRPSession17CancelReceiveFileEv @ 8 NONAME
	_ZN12CMSRPSession6ListenERK6TDesC8 @ 9 NONAME
	_ZN12CMSRPSession7ConnectERK6TDesC8 @ 10 NONAME
	_ZN12CMSRPSession8SendFileERK4TBufILi256EERK6TDesC8 @ 11 NONAME
	_ZN18CMSRPSessionParams17SetReportHeadersLE13TReportStatusS0_ @ 12 NONAME
	_ZN18CMSRPSessionParams19FailureReportHeaderEv @ 13 NONAME
	_ZN18CMSRPSessionParams19SuccessReportHeaderEv @ 14 NONAME
	_ZN18CMSRPSessionParams4NewLEv @ 15 NONAME
	_ZN18CMSRPSessionParamsD0Ev @ 16 NONAME
	_ZN18CMSRPSessionParamsD1Ev @ 17 NONAME
	_ZN18CMSRPSessionParamsD2Ev @ 18 NONAME
	_ZN5CMSRP10ConstructLERK4TUid @ 19 NONAME
	_ZN5CMSRP16CloseMSRPSessionEP12CMSRPSession @ 20 NONAME
	_ZN5CMSRP18CreateMSRPSessionLER20MMSRPSessionObserverj @ 21 NONAME
	_ZN5CMSRP4NewLERK4TUid @ 22 NONAME
	_ZN5CMSRP5NewLCERK4TUid @ 23 NONAME
	_ZN5CMSRPD0Ev @ 24 NONAME
	_ZN5CMSRPD1Ev @ 25 NONAME
	_ZN5CMSRPD2Ev @ 26 NONAME
	_ZTI12CMSRPSession @ 27 NONAME
	_ZTI12RMSRPSession @ 28 NONAME
	_ZTI17CMSRPListenerBase @ 29 NONAME
	_ZTI18CMSRPSessionParams @ 30 NONAME
	_ZTI19CMSRPImplementation @ 31 NONAME
	_ZTI21CMSRPIncomingListener @ 32 NONAME
	_ZTI23CMSRPConnectionListener @ 33 NONAME
	_ZTI23CMSRPSendResultListener @ 34 NONAME
	_ZTI26CMSRPSessionImplementation @ 35 NONAME
	_ZTI5CMSRP @ 36 NONAME
	_ZTV12CMSRPSession @ 37 NONAME
	_ZTV12RMSRPSession @ 38 NONAME
	_ZTV17CMSRPListenerBase @ 39 NONAME
	_ZTV18CMSRPSessionParams @ 40 NONAME
	_ZTV19CMSRPImplementation @ 41 NONAME
	_ZTV21CMSRPIncomingListener @ 42 NONAME
	_ZTV23CMSRPConnectionListener @ 43 NONAME
	_ZTV23CMSRPSendResultListener @ 44 NONAME
	_ZTV26CMSRPSessionImplementation @ 45 NONAME
	_ZTV5CMSRP @ 46 NONAME

